target datalayout = "e-m:e-p270:32:32-p271:32:32-p272:64:64-i64:64-i128:128-f80:128-n8:16:32:64-S128"
target triple = "x86_64-pc-linux-gnu"

%struct.bipbuf_t = type { i64, i32, i32, i32, i32, [0 x i8] }

; Function Attrs: nounwind uwtable
define internal void @__check_for_switch_to_b(ptr noundef %0) #0 {
  %2 = alloca ptr, align 8
  store ptr %0, ptr %2, align 8, !tbaa !4
  %3 = load ptr, ptr %2, align 8, !tbaa !4
  %4 = getelementptr inbounds nuw %struct.bipbuf_t, ptr %3, i32 0, i32 0
  %5 = load i64, ptr %4, align 8, !tbaa !10
  %6 = load ptr, ptr %2, align 8, !tbaa !4
  %7 = getelementptr inbounds nuw %struct.bipbuf_t, ptr %6, i32 0, i32 2
  %8 = load i32, ptr %7, align 4, !tbaa !8
  %9 = zext i32 %8 to i64
  %10 = sub i64 %5, %9
  %11 = load ptr, ptr %2, align 8, !tbaa !4
  %12 = getelementptr inbounds nuw %struct.bipbuf_t, ptr %11, i32 0, i32 1
  %13 = load i32, ptr %12, align 8, !tbaa !8
  %14 = load ptr, ptr %2, align 8, !tbaa !4
  %15 = getelementptr inbounds nuw %struct.bipbuf_t, ptr %14, i32 0, i32 3
  %16 = load i32, ptr %15, align 8, !tbaa !8
  %17 = sub i32 %13, %16
  %18 = zext i32 %17 to i64
  %19 = icmp ult i64 %10, %18
  br i1 %19, label %20, label %23

20:                                               ; preds = %1
  %21 = load ptr, ptr %2, align 8, !tbaa !4
  %22 = getelementptr inbounds nuw %struct.bipbuf_t, ptr %21, i32 0, i32 4
  store i32 1, ptr %22, align 4, !tbaa !8
  br label %23

23:                                               ; preds = %20, %1
  ret void
}

; Function Attrs: nounwind uwtable
define dso_local i32 @bipbuf_unused(ptr noundef %0) #0 {
  %2 = alloca i32, align 4
  %3 = alloca ptr, align 8
  store ptr %0, ptr %3, align 8, !tbaa !4
  %4 = load ptr, ptr %3, align 8, !tbaa !4
  %5 = getelementptr inbounds nuw %struct.bipbuf_t, ptr %4, i32 0, i32 4
  %6 = load i32, ptr %5, align 4, !tbaa !8
  %7 = icmp eq i32 1, %6
  br i1 %7, label %8, label %16

8:                                                ; preds = %1
  %9 = load ptr, ptr %3, align 8, !tbaa !4
  %10 = getelementptr inbounds nuw %struct.bipbuf_t, ptr %9, i32 0, i32 1
  %11 = load i32, ptr %10, align 8, !tbaa !8
  %12 = load ptr, ptr %3, align 8, !tbaa !4
  %13 = getelementptr inbounds nuw %struct.bipbuf_t, ptr %12, i32 0, i32 3
  %14 = load i32, ptr %13, align 8, !tbaa !8
  %15 = sub i32 %11, %14
  store i32 %15, ptr %2, align 4
  br label %26

16:                                               ; preds = %1
  %17 = load ptr, ptr %3, align 8, !tbaa !4
  %18 = getelementptr inbounds nuw %struct.bipbuf_t, ptr %17, i32 0, i32 0
  %19 = load i64, ptr %18, align 8, !tbaa !10
  %20 = load ptr, ptr %3, align 8, !tbaa !4
  %21 = getelementptr inbounds nuw %struct.bipbuf_t, ptr %20, i32 0, i32 2
  %22 = load i32, ptr %21, align 4, !tbaa !8
  %23 = zext i32 %22 to i64
  %24 = sub i64 %19, %23
  %25 = trunc i64 %24 to i32
  store i32 %25, ptr %2, align 4
  br label %26

26:                                               ; preds = %16, %8
  %27 = load i32, ptr %2, align 4
  ret i32 %27
}

; Function Attrs: nounwind uwtable
define dso_local i32 @bipbuf_offer(ptr noundef %0, ptr noundef %1, i32 noundef %2) #0 {
  %4 = alloca i32, align 4
  %5 = alloca ptr, align 8
  %6 = alloca ptr, align 8
  %7 = alloca i32, align 4
  store ptr %0, ptr %5, align 8, !tbaa !4
  store ptr %1, ptr %6, align 8, !tbaa !12
  store i32 %2, ptr %7, align 4, !tbaa !8
  %8 = load ptr, ptr %5, align 8, !tbaa !4
  %9 = call i32 @bipbuf_unused(ptr noundef %8)
  %10 = load i32, ptr %7, align 4, !tbaa !8
  %11 = icmp slt i32 %9, %10
  br i1 %11, label %12, label %13

12:                                               ; preds = %3
  store i32 0, ptr %4, align 4
  br label %55

13:                                               ; preds = %3
  %14 = load ptr, ptr %5, align 8, !tbaa !4
  %15 = getelementptr inbounds nuw %struct.bipbuf_t, ptr %14, i32 0, i32 4
  %16 = load i32, ptr %15, align 4, !tbaa !8
  %17 = icmp eq i32 1, %16
  br i1 %17, label %18, label %35

18:                                               ; preds = %13
  %19 = load ptr, ptr %5, align 8, !tbaa !4
  %20 = getelementptr inbounds nuw %struct.bipbuf_t, ptr %19, i32 0, i32 5
  %21 = getelementptr inbounds [0 x i8], ptr %20, i64 0, i64 0
  %22 = load ptr, ptr %5, align 8, !tbaa !4
  %23 = getelementptr inbounds nuw %struct.bipbuf_t, ptr %22, i32 0, i32 3
  %24 = load i32, ptr %23, align 8, !tbaa !8
  %25 = zext i32 %24 to i64
  %26 = getelementptr inbounds nuw i8, ptr %21, i64 %25
  %27 = load ptr, ptr %6, align 8, !tbaa !12
  %28 = load i32, ptr %7, align 4, !tbaa !8
  %29 = sext i32 %28 to i64
  call void @llvm.memcpy.p0.p0.i64(ptr align 1 %26, ptr align 1 %27, i64 %29, i1 false)
  %30 = load i32, ptr %7, align 4, !tbaa !8
  %31 = load ptr, ptr %5, align 8, !tbaa !4
  %32 = getelementptr inbounds nuw %struct.bipbuf_t, ptr %31, i32 0, i32 3
  %33 = load i32, ptr %32, align 8, !tbaa !8
  %34 = add i32 %33, %30
  store i32 %34, ptr %32, align 8, !tbaa !8
  br label %52

35:                                               ; preds = %13
  %36 = load ptr, ptr %5, align 8, !tbaa !4
  %37 = getelementptr inbounds nuw %struct.bipbuf_t, ptr %36, i32 0, i32 5
  %38 = getelementptr inbounds [0 x i8], ptr %37, i64 0, i64 0
  %39 = load ptr, ptr %5, align 8, !tbaa !4
  %40 = getelementptr inbounds nuw %struct.bipbuf_t, ptr %39, i32 0, i32 2
  %41 = load i32, ptr %40, align 4, !tbaa !8
  %42 = zext i32 %41 to i64
  %43 = getelementptr inbounds nuw i8, ptr %38, i64 %42
  %44 = load ptr, ptr %6, align 8, !tbaa !12
  %45 = load i32, ptr %7, align 4, !tbaa !8
  %46 = sext i32 %45 to i64
  call void @llvm.memcpy.p0.p0.i64(ptr align 1 %43, ptr align 1 %44, i64 %46, i1 false)
  %47 = load i32, ptr %7, align 4, !tbaa !8
  %48 = load ptr, ptr %5, align 8, !tbaa !4
  %49 = getelementptr inbounds nuw %struct.bipbuf_t, ptr %48, i32 0, i32 2
  %50 = load i32, ptr %49, align 4, !tbaa !8
  %51 = add i32 %50, %47
  store i32 %51, ptr %49, align 4, !tbaa !8
  br label %52

52:                                               ; preds = %35, %18
  %53 = load ptr, ptr %5, align 8, !tbaa !4
  call void @__check_for_switch_to_b(ptr noundef %53)
  %54 = load i32, ptr %7, align 4, !tbaa !8
  store i32 %54, ptr %4, align 4
  br label %55

55:                                               ; preds = %52, %12
  %56 = load i32, ptr %4, align 4
  ret i32 %56
}