; Function Attrs: mustprogress nofree norecurse nosync nounwind willreturn memory(argmem: readwrite) uwtable
define dso_local noundef i32 @bipbuf_offer(ptr noundef captures(none) %0, ptr noundef readonly captures(none) %1, i32 noundef %2) local_unnamed_addr #6 {
  %4 = getelementptr inbounds nuw i8, ptr %0, i64 20
  %5 = load i32, ptr %4, align 4, !tbaa !4
  %6 = icmp eq i32 %5, 1
  br i1 %6, label %bipbuf_unused.exit, label %bipbuf_unused.exit.thread

bipbuf_unused.exit:                               ; preds = %3
  %7 = getelementptr inbounds nuw i8, ptr %0, i64 8
  %8 = load i32, ptr %7, align 8, !tbaa !4
  %9 = getelementptr inbounds nuw i8, ptr %0, i64 16
  %10 = load i32, ptr %9, align 8, !tbaa !4
  %11 = sub i32 %8, %10
  %12 = icmp slt i32 %11, %2
  br i1 %12, label %__check_for_switch_to_b.exit, label %19

bipbuf_unused.exit.thread:                        ; preds = %3
  %13 = load i64, ptr %0, align 8, !tbaa !8
  %14 = getelementptr inbounds nuw i8, ptr %0, i64 12
  %15 = load i32, ptr %14, align 4, !tbaa !4
  %16 = trunc i64 %13 to i32
  %17 = sub i32 %16, %15
  %18 = icmp slt i32 %17, %2
  br i1 %18, label %__check_for_switch_to_b.exit, label %.thread

19:                                               ; preds = %bipbuf_unused.exit
  %20 = getelementptr inbounds nuw i8, ptr %0, i64 24
  %21 = zext i32 %10 to i64
  %22 = getelementptr inbounds nuw i8, ptr %20, i64 %21
  %23 = sext i32 %2 to i64
  tail call void @llvm.memcpy.p0.p0.i64(ptr nonnull align 1 %22, ptr align 1 %1, i64 %23, i1 false)
  %24 = add i32 %10, %2
  store i32 %24, ptr %9, align 8, !tbaa !4
  %.pre = load i64, ptr %0, align 8, !tbaa !8
  %.phi.trans.insert = getelementptr inbounds nuw i8, ptr %0, i64 12
  %.pre19 = load i32, ptr %.phi.trans.insert, align 4, !tbaa !4
  br label %30

.thread:                                          ; preds = %bipbuf_unused.exit.thread
  %25 = getelementptr inbounds nuw i8, ptr %0, i64 24
  %26 = zext i32 %15 to i64
  %27 = getelementptr inbounds nuw i8, ptr %25, i64 %26
  %28 = sext i32 %2 to i64
  tail call void @llvm.memcpy.p0.p0.i64(ptr nonnull align 1 %27, ptr align 1 %1, i64 %28, i1 false)
  %29 = add i32 %15, %2
  store i32 %29, ptr %14, align 4, !tbaa !4
  %.phi.trans.insert20 = getelementptr inbounds nuw i8, ptr %0, i64 8
  %.pre21 = load i32, ptr %.phi.trans.insert20, align 8, !tbaa !4
  %.phi.trans.insert22 = getelementptr inbounds nuw i8, ptr %0, i64 16
  %.pre23 = load i32, ptr %.phi.trans.insert22, align 8, !tbaa !4
  br label %30

30:                                               ; preds = %.thread, %19
  %31 = phi i32 [ %.pre23, %.thread ], [ %24, %19 ]
  %32 = phi i32 [ %.pre21, %.thread ], [ %8, %19 ]
  %33 = phi i32 [ %29, %.thread ], [ %.pre19, %19 ]
  %34 = phi i64 [ %13, %.thread ], [ %.pre, %19 ]
  %35 = zext i32 %33 to i64
  %36 = sub i64 %34, %35
  %37 = sub i32 %32, %31
  %38 = zext i32 %37 to i64
  %39 = icmp ult i64 %36, %38
  br i1 %39, label %40, label %__check_for_switch_to_b.exit

40:                                               ; preds = %30
  store i32 1, ptr %4, align 4, !tbaa !4
  br label %__check_for_switch_to_b.exit

__check_for_switch_to_b.exit:                     ; preds = %40, %30, %bipbuf_unused.exit.thread, %bipbuf_unused.exit
  %.0 = phi i32 [ 0, %bipbuf_unused.exit ], [ 0, %bipbuf_unused.exit.thread ], [ %2, %30 ], [ %2, %40 ]
  ret i32 %.0
}